; Function Attrs: mustprogress nounwind uwtable
define void @_ZN7testing10InSequenceD2Ev(ptr nocapture noundef nonnull readonly align 1 dereferenceable(1) %this) unnamed_addr #7 align 2 personality ptr @__gxx_personality_v0 {
entry:
  %0 = load i8, ptr %this, align 1
  %1 = and i8 %0, 1
  %tobool.not = icmp eq i8 %1, 0
  br i1 %tobool.not, label %if.end, label %if.then

if.then:                                          ; preds = %entry
  %call.i.i1 = invoke noundef nonnull align 8 dereferenceable(8) ptr @_ZNK7testing8internal11ThreadLocalIPNS_8SequenceEE16GetOrCreateValueEv(ptr noundef nonnull align 8 dereferenceable(16) @_ZN7testing8internal25g_gmock_implicit_sequenceE)
          to label %invoke.cont unwind label %terminate.lpad

invoke.cont:                                      ; preds = %if.then
  %2 = load ptr, ptr %call.i.i1, align 8
  %isnull = icmp eq ptr %2, null
  br i1 %isnull, label %delete.end, label %delete.notnull

delete.notnull:                                   ; preds = %invoke.cont
  %link_.i.i.i = getelementptr inbounds i8, ptr %2, i64 8
  invoke void @_ZN7testing8internal9MutexBase4LockEv(ptr noundef nonnull align 8 dereferenceable(56) @_ZN7testing8internal18g_linked_ptr_mutexE)
          to label %.noexc.i.i unwind label %terminate.lpad.i.i

.noexc.i.i:                                       ; preds = %delete.notnull
  %3 = load ptr, ptr %link_.i.i.i, align 8
  %cmp.i.i.i.i = icmp eq ptr %3, %link_.i.i.i
  br i1 %cmp.i.i.i.i, label %cleanup.i.i.i.i, label %while.cond.i.i.i.i

while.cond.i.i.i.i:                               ; preds = %.noexc.i.i, %while.cond.i.i.i.i
  %p.0.i.i.i.i = phi ptr [ %4, %while.cond.i.i.i.i ], [ %3, %.noexc.i.i ]
  %4 = load ptr, ptr %p.0.i.i.i.i, align 8
  %cmp4.not.i.i.i.i = icmp eq ptr %4, %link_.i.i.i
  br i1 %cmp4.not.i.i.i.i, label %while.end.i.i.i.i, label %while.cond.i.i.i.i, !llvm.loop !16

while.end.i.i.i.i:                                ; preds = %while.cond.i.i.i.i
  store ptr %3, ptr %p.0.i.i.i.i, align 8
  br label %cleanup.i.i.i.i

cleanup.i.i.i.i:                                  ; preds = %while.end.i.i.i.i, %.noexc.i.i
  invoke void @_ZN7testing8internal9MutexBase6UnlockEv(ptr noundef nonnull align 8 dereferenceable(56) @_ZN7testing8internal18g_linked_ptr_mutexE)
          to label %_ZN7testing8internal19linked_ptr_internal6departEv.exit.i.i.i unwind label %terminate.lpad.i.i.i.i.i

terminate.lpad.i.i.i.i.i:                         ; preds = %cleanup.i.i.i.i
  %5 = landingpad { ptr, i32 }
          catch ptr null
  %6 = extractvalue { ptr, i32 } %5, 0
  tail call void @__clang_call_terminate(ptr %6) #30
  unreachable

_ZN7testing8internal19linked_ptr_internal6departEv.exit.i.i.i: ; preds = %cleanup.i.i.i.i
  br i1 %cmp.i.i.i.i, label %if.then.i.i.i, label %_ZN7testing8SequenceD2Ev.exit

if.then.i.i.i:                                    ; preds = %_ZN7testing8internal19linked_ptr_internal6departEv.exit.i.i.i
  %7 = load ptr, ptr %2, align 8
  %isnull.i.i.i = icmp eq ptr %7, null
  br i1 %isnull.i.i.i, label %_ZN7testing8SequenceD2Ev.exit, label %delete.notnull.i.i.i

delete.notnull.i.i.i:                             ; preds = %if.then.i.i.i
  tail call void @_ZN7testing11ExpectationD1Ev(ptr noundef nonnull align 8 dereferenceable(16) %7) #26
  tail call void @_ZdlPv(ptr noundef nonnull %7) #28
  br label %_ZN7testing8SequenceD2Ev.exit

terminate.lpad.i.i:                               ; preds = %delete.notnull
  %8 = landingpad { ptr, i32 }
          catch ptr null
  %9 = extractvalue { ptr, i32 } %8, 0
  tail call void @__clang_call_terminate(ptr %9) #30
  unreachable

_ZN7testing8SequenceD2Ev.exit:                    ; preds = %_ZN7testing8internal19linked_ptr_internal6departEv.exit.i.i.i, %if.then.i.i.i, %delete.notnull.i.i.i
  tail call void @_ZdlPv(ptr noundef %2) #28
  br label %delete.end

delete.end:                                       ; preds = %_ZN7testing8SequenceD2Ev.exit, %invoke.cont
  %call.i.i2 = invoke noundef ptr @_ZNK7testing8internal11ThreadLocalIPNS_8SequenceEE16GetOrCreateValueEv(ptr noundef nonnull align 8 dereferenceable(16) @_ZN7testing8internal25g_gmock_implicit_sequenceE)
          to label %_ZN7testing8internal11ThreadLocalIPNS_8SequenceEE3setERKS3_.exit unwind label %terminate.lpad

_ZN7testing8internal11ThreadLocalIPNS_8SequenceEE3setERKS3_.exit: ; preds = %delete.end
  store ptr null, ptr %call.i.i2, align 8
  br label %if.end

if.end:                                           ; preds = %_ZN7testing8internal11ThreadLocalIPNS_8SequenceEE3setERKS3_.exit, %entry
  ret void

terminate.lpad:                                   ; preds = %delete.end, %if.then
  %10 = landingpad { ptr, i32 }
          catch ptr null
  %11 = extractvalue { ptr, i32 } %10, 0
  tail call void @__clang_call_terminate(ptr %11) #30
  unreachable
}